target datalayout = "e-m:e-p270:32:32-p271:32:32-p272:64:64-i64:64-i128:128-f80:128-n8:16:32:64-S128"
target triple = "x86_64-pc-linux-gnu"

%struct.nghttp2_frame_hd = type { i64, i32, i8, i8, i8 }
%struct.nghttp2_settings = type { %struct.nghttp2_frame_hd, i64, ptr }
%struct.nghttp2_bufs = type { ptr, ptr, ptr, i64, i64, i64, i64, i64 }
%struct.nghttp2_buf_chain = type { ptr, %struct.nghttp2_buf }
%struct.nghttp2_buf = type { ptr, ptr, ptr, ptr, ptr }
%struct.nghttp2_settings_entry = type { i32, i32 }

@.str = private unnamed_addr constant [24 x i8] c"bufs->head == bufs->cur\00", align 1
@.str.1 = private unnamed_addr constant [113 x i8] c"generated/home/dtcxzyw/WorkSpace/Projects/compilers/llvm-opt-benchmark/bench/nghttp2/nghttp2/lib/nghttp2_frame.c\00", align 1
@__PRETTY_FUNCTION__.nghttp2_frame_pack_settings = private unnamed_addr constant [68 x i8] c"int nghttp2_frame_pack_settings(nghttp2_bufs *, nghttp2_settings *)\00", align 1

; Function Attrs: nounwind uwtable
define hidden i64 @nghttp2_frame_pack_settings_payload(ptr noundef %0, ptr noundef %1, i64 noundef %2) #0 {
  %4 = alloca ptr, align 8
  %5 = alloca ptr, align 8
  %6 = alloca i64, align 8
  %7 = alloca i64, align 8
  store ptr %0, ptr %4, align 8, !tbaa !3
  store ptr %1, ptr %5, align 8, !tbaa !8
  store i64 %2, ptr %6, align 8, !tbaa !18
  call void @llvm.lifetime.start.p0(i64 8, ptr %7) #7
  store i64 0, ptr %7, align 8, !tbaa !18
  br label %8

8:                                                ; preds = %27, %3
  %9 = load i64, ptr %7, align 8, !tbaa !18
  %10 = load i64, ptr %6, align 8, !tbaa !18
  %11 = icmp ult i64 %9, %10
  br i1 %11, label %12, label %32

12:                                               ; preds = %8
  %13 = load ptr, ptr %4, align 8, !tbaa !3
  %14 = load ptr, ptr %5, align 8, !tbaa !8
  %15 = load i64, ptr %7, align 8, !tbaa !18
  %16 = getelementptr inbounds nuw %struct.nghttp2_settings_entry, ptr %14, i64 %15
  %17 = getelementptr inbounds nuw %struct.nghttp2_settings_entry, ptr %16, i32 0, i32 0
  %18 = load i32, ptr %17, align 4, !tbaa !88
  %19 = trunc i32 %18 to i16
  call void @nghttp2_put_uint16be(ptr noundef %13, i16 noundef zeroext %19)
  %20 = load ptr, ptr %4, align 8, !tbaa !3
  %21 = getelementptr inbounds i8, ptr %20, i64 2
  %22 = load ptr, ptr %5, align 8, !tbaa !8
  %23 = load i64, ptr %7, align 8, !tbaa !18
  %24 = getelementptr inbounds nuw %struct.nghttp2_settings_entry, ptr %22, i64 %23
  %25 = getelementptr inbounds nuw %struct.nghttp2_settings_entry, ptr %24, i32 0, i32 1
  %26 = load i32, ptr %25, align 4, !tbaa !90
  call void @nghttp2_put_uint32be(ptr noundef %21, i32 noundef %26)
  br label %27

27:                                               ; preds = %12
  %28 = load i64, ptr %7, align 8, !tbaa !18
  %29 = add i64 %28, 1
  store i64 %29, ptr %7, align 8, !tbaa !18
  %30 = load ptr, ptr %4, align 8, !tbaa !3
  %31 = getelementptr inbounds i8, ptr %30, i64 6
  store ptr %31, ptr %4, align 8, !tbaa !3
  br label %8, !llvm.loop !91

32:                                               ; preds = %8
  %33 = load i64, ptr %6, align 8, !tbaa !18
  %34 = mul i64 6, %33
  call void @llvm.lifetime.end.p0(i64 8, ptr %7) #7
  ret i64 %34
}

; Function Attrs: nounwind uwtable
define hidden void @nghttp2_frame_pack_frame_hd(ptr noundef %0, ptr noundef %1) #0 {
  %3 = alloca ptr, align 8
  %4 = alloca ptr, align 8
  store ptr %0, ptr %3, align 8, !tbaa !3
  store ptr %1, ptr %4, align 8, !tbaa !8
  %5 = load ptr, ptr %3, align 8, !tbaa !3
  %6 = getelementptr inbounds i8, ptr %5, i64 0
  %7 = load ptr, ptr %4, align 8, !tbaa !8
  %8 = getelementptr inbounds nuw %struct.nghttp2_frame_hd, ptr %7, i32 0, i32 0
  %9 = load i64, ptr %8, align 8, !tbaa !9
  %10 = shl i64 %9, 8
  %11 = trunc i64 %10 to i32
  call void @nghttp2_put_uint32be(ptr noundef %6, i32 noundef %11)
  %12 = load ptr, ptr %4, align 8, !tbaa !8
  %13 = getelementptr inbounds nuw %struct.nghttp2_frame_hd, ptr %12, i32 0, i32 2
  %14 = load i8, ptr %13, align 4, !tbaa !13
  %15 = load ptr, ptr %3, align 8, !tbaa !3
  %16 = getelementptr inbounds i8, ptr %15, i64 3
  store i8 %14, ptr %16, align 1, !tbaa !14
  %17 = load ptr, ptr %4, align 8, !tbaa !8
  %18 = getelementptr inbounds nuw %struct.nghttp2_frame_hd, ptr %17, i32 0, i32 3
  %19 = load i8, ptr %18, align 1, !tbaa !15
  %20 = load ptr, ptr %3, align 8, !tbaa !3
  %21 = getelementptr inbounds i8, ptr %20, i64 4
  store i8 %19, ptr %21, align 1, !tbaa !14
  %22 = load ptr, ptr %3, align 8, !tbaa !3
  %23 = getelementptr inbounds i8, ptr %22, i64 5
  %24 = load ptr, ptr %4, align 8, !tbaa !8
  %25 = getelementptr inbounds nuw %struct.nghttp2_frame_hd, ptr %24, i32 0, i32 1
  %26 = load i32, ptr %25, align 8, !tbaa !16
  call void @nghttp2_put_uint32be(ptr noundef %23, i32 noundef %26)
  ret void
}

; Function Attrs: nounwind uwtable
define hidden i32 @nghttp2_frame_pack_settings(ptr noundef %0, ptr noundef %1) #0 {
  %3 = alloca i32, align 4
  %4 = alloca ptr, align 8
  %5 = alloca ptr, align 8
  %6 = alloca ptr, align 8
  %7 = alloca i32, align 4
  store ptr %0, ptr %4, align 8, !tbaa !8
  store ptr %1, ptr %5, align 8, !tbaa !8
  call void @llvm.lifetime.start.p0(i64 8, ptr %6) #7
  %8 = load ptr, ptr %4, align 8, !tbaa !8
  %9 = getelementptr inbounds nuw %struct.nghttp2_bufs, ptr %8, i32 0, i32 0
  %10 = load ptr, ptr %9, align 8, !tbaa !70
  %11 = load ptr, ptr %4, align 8, !tbaa !8
  %12 = getelementptr inbounds nuw %struct.nghttp2_bufs, ptr %11, i32 0, i32 1
  %13 = load ptr, ptr %12, align 8, !tbaa !73
  %14 = icmp eq ptr %10, %13
  br i1 %14, label %15, label %16

15:                                               ; preds = %2
  br label %17

16:                                               ; preds = %2
  call void @__assert_fail(ptr noundef @.str, ptr noundef @.str.1, i32 noundef 482, ptr noundef @__PRETTY_FUNCTION__.nghttp2_frame_pack_settings) #8
  unreachable

17:                                               ; preds = %15
  %18 = load ptr, ptr %4, align 8, !tbaa !8
  %19 = getelementptr inbounds nuw %struct.nghttp2_bufs, ptr %18, i32 0, i32 0
  %20 = load ptr, ptr %19, align 8, !tbaa !70
  %21 = getelementptr inbounds nuw %struct.nghttp2_buf_chain, ptr %20, i32 0, i32 1
  store ptr %21, ptr %6, align 8, !tbaa !8
  %22 = load ptr, ptr %6, align 8, !tbaa !8
  %23 = getelementptr inbounds nuw %struct.nghttp2_buf, ptr %22, i32 0, i32 1
  %24 = load ptr, ptr %23, align 8, !tbaa !86
  %25 = load ptr, ptr %6, align 8, !tbaa !8
  %26 = getelementptr inbounds nuw %struct.nghttp2_buf, ptr %25, i32 0, i32 3
  %27 = load ptr, ptr %26, align 8, !tbaa !76
  %28 = ptrtoint ptr %24 to i64
  %29 = ptrtoint ptr %27 to i64
  %30 = sub i64 %28, %29
  %31 = load ptr, ptr %5, align 8, !tbaa !8
  %32 = getelementptr inbounds nuw %struct.nghttp2_settings, ptr %31, i32 0, i32 0
  %33 = getelementptr inbounds nuw %struct.nghttp2_frame_hd, ptr %32, i32 0, i32 0
  %34 = load i64, ptr %33, align 8, !tbaa !87
  %35 = icmp ult i64 %30, %34
  br i1 %35, label %36, label %37

36:                                               ; preds = %17
  store i32 -522, ptr %3, align 4
  store i32 1, ptr %7, align 4
  br label %61

37:                                               ; preds = %17
  %38 = load ptr, ptr %6, align 8, !tbaa !8
  %39 = getelementptr inbounds nuw %struct.nghttp2_buf, ptr %38, i32 0, i32 2
  %40 = load ptr, ptr %39, align 8, !tbaa !74
  %41 = getelementptr inbounds i8, ptr %40, i64 -9
  store ptr %41, ptr %39, align 8, !tbaa !74
  %42 = load ptr, ptr %6, align 8, !tbaa !8
  %43 = getelementptr inbounds nuw %struct.nghttp2_buf, ptr %42, i32 0, i32 2
  %44 = load ptr, ptr %43, align 8, !tbaa !74
  %45 = load ptr, ptr %5, align 8, !tbaa !8
  %46 = getelementptr inbounds nuw %struct.nghttp2_settings, ptr %45, i32 0, i32 0
  call void @nghttp2_frame_pack_frame_hd(ptr noundef %44, ptr noundef %46)
  %47 = load ptr, ptr %6, align 8, !tbaa !8
  %48 = getelementptr inbounds nuw %struct.nghttp2_buf, ptr %47, i32 0, i32 3
  %49 = load ptr, ptr %48, align 8, !tbaa !76
  %50 = load ptr, ptr %5, align 8, !tbaa !8
  %51 = getelementptr inbounds nuw %struct.nghttp2_settings, ptr %50, i32 0, i32 2
  %52 = load ptr, ptr %51, align 8, !tbaa !31
  %53 = load ptr, ptr %5, align 8, !tbaa !8
  %54 = getelementptr inbounds nuw %struct.nghttp2_settings, ptr %53, i32 0, i32 1
  %55 = load i64, ptr %54, align 8, !tbaa !29
  %56 = call i64 @nghttp2_frame_pack_settings_payload(ptr noundef %49, ptr noundef %52, i64 noundef %55)
  %57 = load ptr, ptr %6, align 8, !tbaa !8
  %58 = getelementptr inbounds nuw %struct.nghttp2_buf, ptr %57, i32 0, i32 3
  %59 = load ptr, ptr %58, align 8, !tbaa !76
  %60 = getelementptr inbounds nuw i8, ptr %59, i64 %56
  store ptr %60, ptr %58, align 8, !tbaa !76
  store i32 0, ptr %3, align 4
  store i32 1, ptr %7, align 4
  br label %61

61:                                               ; preds = %37, %36
  call void @llvm.lifetime.end.p0(i64 8, ptr %6) #7
  %62 = load i32, ptr %3, align 4
  ret i32 %62
}