; Function Attrs: nounwind uwtable
define hidden range(i32 -522, 1) i32 @nghttp2_frame_pack_settings(ptr noundef readonly captures(none) %0, ptr noundef readonly captures(none) %1) local_unnamed_addr #0 {
  %3 = load ptr, ptr %0, align 8, !tbaa !65
  %4 = getelementptr inbounds nuw i8, ptr %0, i64 8
  %5 = load ptr, ptr %4, align 8, !tbaa !68
  %6 = icmp eq ptr %3, %5
  br i1 %6, label %8, label %7

7:                                                ; preds = %2
  tail call void @__assert_fail(ptr noundef nonnull @.str, ptr noundef nonnull @.str.1, i32 noundef 482, ptr noundef nonnull @__PRETTY_FUNCTION__.nghttp2_frame_pack_settings) #19
  unreachable

8:                                                ; preds = %2
  %9 = getelementptr inbounds nuw i8, ptr %3, i64 16
  %10 = load ptr, ptr %9, align 8, !tbaa !79
  %11 = getelementptr inbounds nuw i8, ptr %3, i64 32
  %12 = load ptr, ptr %11, align 8, !tbaa !71
  %13 = ptrtoint ptr %10 to i64
  %14 = ptrtoint ptr %12 to i64
  %15 = sub i64 %13, %14
  %16 = load i64, ptr %1, align 8, !tbaa !80
  %17 = icmp ult i64 %15, %16
  br i1 %17, label %48, label %18

18:                                               ; preds = %8
  %19 = getelementptr inbounds nuw i8, ptr %3, i64 24
  %20 = load ptr, ptr %19, align 8, !tbaa !69
  %21 = getelementptr inbounds i8, ptr %20, i64 -9
  store ptr %21, ptr %19, align 8, !tbaa !69
  %.tr.i = trunc i64 %16 to i32
  %22 = shl i32 %.tr.i, 8
  tail call void @nghttp2_put_uint32be(ptr noundef nonnull %21, i32 noundef %22) #18
  %23 = getelementptr inbounds nuw i8, ptr %1, i64 12
  %24 = load i8, ptr %23, align 4, !tbaa !9
  %25 = getelementptr inbounds i8, ptr %20, i64 -6
  store i8 %24, ptr %25, align 1, !tbaa !10
  %26 = getelementptr inbounds nuw i8, ptr %1, i64 13
  %27 = load i8, ptr %26, align 1, !tbaa !11
  %28 = getelementptr inbounds i8, ptr %20, i64 -5
  store i8 %27, ptr %28, align 1, !tbaa !10
  %29 = getelementptr inbounds i8, ptr %20, i64 -4
  %30 = getelementptr inbounds nuw i8, ptr %1, i64 8
  %31 = load i32, ptr %30, align 8, !tbaa !12
  tail call void @nghttp2_put_uint32be(ptr noundef nonnull %29, i32 noundef %31) #18
  %32 = load ptr, ptr %11, align 8, !tbaa !71
  %33 = getelementptr inbounds nuw i8, ptr %1, i64 24
  %34 = load ptr, ptr %33, align 8, !tbaa !27
  %35 = getelementptr inbounds nuw i8, ptr %1, i64 16
  %36 = load i64, ptr %35, align 8, !tbaa !25
  %.not.i = icmp eq i64 %36, 0
  br i1 %.not.i, label %nghttp2_frame_pack_settings_payload.exit, label %.lr.ph.i

.lr.ph.i:                                         ; preds = %18, %.lr.ph.i
  %.013.i = phi i64 [ %43, %.lr.ph.i ], [ 0, %18 ]
  %.01012.i = phi ptr [ %44, %.lr.ph.i ], [ %32, %18 ]
  %37 = getelementptr inbounds nuw %struct.nghttp2_settings_entry, ptr %34, i64 %.013.i
  %38 = load i32, ptr %37, align 4, !tbaa !81
  %39 = trunc i32 %38 to i16
  tail call void @nghttp2_put_uint16be(ptr noundef %.01012.i, i16 noundef zeroext %39) #18
  %40 = getelementptr inbounds nuw i8, ptr %.01012.i, i64 2
  %41 = getelementptr inbounds nuw i8, ptr %37, i64 4
  %42 = load i32, ptr %41, align 4, !tbaa !83
  tail call void @nghttp2_put_uint32be(ptr noundef nonnull %40, i32 noundef %42) #18
  %43 = add nuw i64 %.013.i, 1
  %44 = getelementptr inbounds nuw i8, ptr %.01012.i, i64 6
  %exitcond.not.i = icmp eq i64 %43, %36
  br i1 %exitcond.not.i, label %nghttp2_frame_pack_settings_payload.exit.loopexit, label %.lr.ph.i, !llvm.loop !84

nghttp2_frame_pack_settings_payload.exit.loopexit: ; preds = %.lr.ph.i
  %.pre = load ptr, ptr %11, align 8, !tbaa !71
  br label %nghttp2_frame_pack_settings_payload.exit

nghttp2_frame_pack_settings_payload.exit:         ; preds = %nghttp2_frame_pack_settings_payload.exit.loopexit, %18
  %45 = phi ptr [ %.pre, %nghttp2_frame_pack_settings_payload.exit.loopexit ], [ %32, %18 ]
  %46 = mul i64 %36, 6
  %47 = getelementptr inbounds nuw i8, ptr %45, i64 %46
  store ptr %47, ptr %11, align 8, !tbaa !71
  br label %48

48:                                               ; preds = %8, %nghttp2_frame_pack_settings_payload.exit
  %.0 = phi i32 [ 0, %nghttp2_frame_pack_settings_payload.exit ], [ -522, %8 ]
  ret i32 %.0
}